target datalayout = "e-m:e-p270:32:32-p271:32:32-p272:64:64-i64:64-i128:128-f80:128-n8:16:32:64-S128"
target triple = "x86_64-pc-linux-gnu"

@.str.5 = private unnamed_addr constant [15 x i8] c"CVDIAG_SUCCESS\00", align 1
@.str.6 = private unnamed_addr constant [16 x i8] c"CVDIAG_MEM_NULL\00", align 1
@.str.7 = private unnamed_addr constant [17 x i8] c"CVDIAG_LMEM_NULL\00", align 1
@.str.8 = private unnamed_addr constant [17 x i8] c"CVDIAG_ILL_INPUT\00", align 1
@.str.9 = private unnamed_addr constant [16 x i8] c"CVDIAG_MEM_FAIL\00", align 1
@.str.10 = private unnamed_addr constant [16 x i8] c"CVDIAG_INV_FAIL\00", align 1
@.str.11 = private unnamed_addr constant [23 x i8] c"CVDIAG_RHSFUNC_UNRECVR\00", align 1
@.str.12 = private unnamed_addr constant [21 x i8] c"CVDIAG_RHSFUNC_RECVR\00", align 1
@.str.13 = private unnamed_addr constant [14 x i8] c"CVDIAG_NO_ADJ\00", align 1
@.str.14 = private unnamed_addr constant [5 x i8] c"NONE\00", align 1

; Function Attrs: nounwind uwtable
define ptr @CVDiagGetReturnFlagName(i64 noundef %0) #0 {
  %2 = alloca i64, align 8
  %3 = alloca ptr, align 8
  store i64 %0, ptr %2, align 8, !tbaa !55
  call void @llvm.lifetime.start.p0(i64 8, ptr %3) #5
  %4 = call noalias ptr @malloc(i64 noundef 30) #6
  store ptr %4, ptr %3, align 8, !tbaa !57
  %5 = load i64, ptr %2, align 8, !tbaa !55
  switch i64 %5, label %33 [
    i64 0, label %6
    i64 -1, label %9
    i64 -2, label %12
    i64 -3, label %15
    i64 -4, label %18
    i64 -5, label %21
    i64 -6, label %24
    i64 -7, label %27
    i64 -101, label %30
  ]

6:                                                ; preds = %1
  %7 = load ptr, ptr %3, align 8, !tbaa !57
  %8 = call i32 (ptr, ptr, ...) @sprintf(ptr noundef %7, ptr noundef @.str.5) #5
  br label %36

9:                                                ; preds = %1
  %10 = load ptr, ptr %3, align 8, !tbaa !57
  %11 = call i32 (ptr, ptr, ...) @sprintf(ptr noundef %10, ptr noundef @.str.6) #5
  br label %36

12:                                               ; preds = %1
  %13 = load ptr, ptr %3, align 8, !tbaa !57
  %14 = call i32 (ptr, ptr, ...) @sprintf(ptr noundef %13, ptr noundef @.str.7) #5
  br label %36

15:                                               ; preds = %1
  %16 = load ptr, ptr %3, align 8, !tbaa !57
  %17 = call i32 (ptr, ptr, ...) @sprintf(ptr noundef %16, ptr noundef @.str.8) #5
  br label %36

18:                                               ; preds = %1
  %19 = load ptr, ptr %3, align 8, !tbaa !57
  %20 = call i32 (ptr, ptr, ...) @sprintf(ptr noundef %19, ptr noundef @.str.9) #5
  br label %36

21:                                               ; preds = %1
  %22 = load ptr, ptr %3, align 8, !tbaa !57
  %23 = call i32 (ptr, ptr, ...) @sprintf(ptr noundef %22, ptr noundef @.str.10) #5
  br label %36

24:                                               ; preds = %1
  %25 = load ptr, ptr %3, align 8, !tbaa !57
  %26 = call i32 (ptr, ptr, ...) @sprintf(ptr noundef %25, ptr noundef @.str.11) #5
  br label %36

27:                                               ; preds = %1
  %28 = load ptr, ptr %3, align 8, !tbaa !57
  %29 = call i32 (ptr, ptr, ...) @sprintf(ptr noundef %28, ptr noundef @.str.12) #5
  br label %36

30:                                               ; preds = %1
  %31 = load ptr, ptr %3, align 8, !tbaa !57
  %32 = call i32 (ptr, ptr, ...) @sprintf(ptr noundef %31, ptr noundef @.str.13) #5
  br label %36

33:                                               ; preds = %1
  %34 = load ptr, ptr %3, align 8, !tbaa !57
  %35 = call i32 (ptr, ptr, ...) @sprintf(ptr noundef %34, ptr noundef @.str.14) #5
  br label %36

36:                                               ; preds = %33, %30, %27, %24, %21, %18, %15, %12, %9, %6
  %37 = load ptr, ptr %3, align 8, !tbaa !57
  call void @llvm.lifetime.end.p0(i64 8, ptr %3) #5
  ret ptr %37
}